; Function Attrs: nofree norecurse nosync nounwind memory(argmem: readwrite) uwtable
define internal void @PredictorAdd13_C(ptr noundef readonly captures(none) %0, ptr noundef readonly captures(none) %1, i32 noundef %2, ptr noalias noundef captures(none) %3) #2 {
  %5 = icmp sgt i32 %2, 0
  br i1 %5, label %.lr.ph.preheader, label %._crit_edge

.lr.ph.preheader:                                 ; preds = %4
  %wide.trip.count = zext nneg i32 %2 to i64
  %scevgep = getelementptr i8, ptr %3, i64 -4
  %load_initial = load i32, ptr %scevgep, align 4
  br label %.lr.ph

.lr.ph:                                           ; preds = %.lr.ph.preheader, %.lr.ph
  %store_forwarded = phi i32 [ %load_initial, %.lr.ph.preheader ], [ %68, %.lr.ph ]
  %indvars.iv = phi i64 [ 0, %.lr.ph.preheader ], [ %indvars.iv.next, %.lr.ph ]
  %6 = getelementptr i32, ptr %3, i64 %indvars.iv
  %7 = getelementptr inbounds nuw i32, ptr %1, i64 %indvars.iv
  %8 = load i32, ptr %7, align 4, !tbaa !3
  %9 = getelementptr inbounds i8, ptr %7, i64 -4
  %10 = load i32, ptr %9, align 4, !tbaa !3
  %11 = xor i32 %8, %store_forwarded
  %12 = lshr i32 %11, 1
  %13 = and i32 %12, 2139062143
  %14 = and i32 %8, %store_forwarded
  %15 = add i32 %13, %14
  %16 = lshr i32 %15, 24
  %17 = lshr i32 %10, 24
  %18 = sub nsw i32 %16, %17
  %.lhs.trunc.i.i.i = trunc nsw i32 %18 to i16
  %19 = sdiv i16 %.lhs.trunc.i.i.i, 2
  %.sext.i.i.i = sext i16 %19 to i32
  %20 = add nsw i32 %16, %.sext.i.i.i
  %21 = icmp ult i32 %20, 256
  %22 = xor i32 %20, -1
  %23 = lshr i32 %22, 24
  %.0.i.i.i.i = select i1 %21, i32 %20, i32 %23
  %24 = lshr i32 %15, 16
  %25 = and i32 %24, 255
  %26 = lshr i32 %10, 16
  %27 = and i32 %26, 255
  %28 = sub nsw i32 %25, %27
  %.lhs.trunc.i14.i.i = trunc nsw i32 %28 to i16
  %29 = sdiv i16 %.lhs.trunc.i14.i.i, 2
  %.sext.i15.i.i = sext i16 %29 to i32
  %30 = add nsw i32 %25, %.sext.i15.i.i
  %31 = icmp ult i32 %30, 256
  %32 = xor i32 %30, -1
  %33 = lshr i32 %32, 24
  %.0.i.i16.i.i = select i1 %31, i32 %30, i32 %33
  %34 = lshr i32 %15, 8
  %35 = and i32 %34, 255
  %36 = lshr i32 %10, 8
  %37 = and i32 %36, 255
  %38 = sub nsw i32 %35, %37
  %.lhs.trunc.i17.i.i = trunc nsw i32 %38 to i16
  %39 = sdiv i16 %.lhs.trunc.i17.i.i, 2
  %.sext.i18.i.i = sext i16 %39 to i32
  %40 = add nsw i32 %35, %.sext.i18.i.i
  %41 = icmp ult i32 %40, 256
  %42 = xor i32 %40, -1
  %43 = lshr i32 %42, 24
  %.0.i.i19.i.i = select i1 %41, i32 %40, i32 %43
  %44 = and i32 %15, 255
  %45 = and i32 %10, 255
  %46 = sub nsw i32 %44, %45
  %.lhs.trunc.i20.i.i = trunc nsw i32 %46 to i16
  %47 = sdiv i16 %.lhs.trunc.i20.i.i, 2
  %.sext.i21.i.i = sext i16 %47 to i32
  %48 = add nsw i32 %44, %.sext.i21.i.i
  %49 = icmp ult i32 %48, 256
  %50 = xor i32 %48, -1
  %51 = lshr i32 %50, 24
  %.0.i.i22.i.i = select i1 %49, i32 %48, i32 %51
  %52 = shl nuw i32 %.0.i.i.i.i, 24
  %53 = shl nuw nsw i32 %.0.i.i16.i.i, 16
  %54 = shl nuw nsw i32 %.0.i.i19.i.i, 8
  %55 = add nuw nsw i32 %52, %.0.i.i22.i.i
  %56 = add nuw nsw i32 %55, %53
  %57 = add nuw nsw i32 %56, %54
  %58 = getelementptr inbounds nuw i32, ptr %0, i64 %indvars.iv
  %59 = load i32, ptr %58, align 4, !tbaa !3
  %60 = and i32 %59, -16711936
  %61 = and i32 %57, -16711936
  %62 = add i32 %61, %60
  %63 = and i32 %59, 16711935
  %64 = and i32 %57, 16711935
  %65 = add nuw nsw i32 %64, %63
  %66 = and i32 %62, -16711936
  %67 = and i32 %65, 16711935
  %68 = or disjoint i32 %66, %67
  store i32 %68, ptr %6, align 4, !tbaa !3
  %indvars.iv.next = add nuw nsw i64 %indvars.iv, 1
  %exitcond.not = icmp eq i64 %indvars.iv.next, %wide.trip.count
  br i1 %exitcond.not, label %._crit_edge, label %.lr.ph, !llvm.loop !78

._crit_edge:                                      ; preds = %.lr.ph, %4
  ret void
}